target datalayout = "e-m:e-p270:32:32-p271:32:32-p272:64:64-i64:64-i128:128-f80:128-n8:16:32:64-S128"
target triple = "x86_64-pc-linux-gnu"

%struct._generic_N_Vector = type { ptr, ptr, ptr }
%struct._N_VectorContent_Serial = type { i64, i32, ptr }

; Function Attrs: nounwind uwtable
define ptr @N_VCloneEmpty_Serial(ptr noundef %0) #0 {
  %2 = alloca ptr, align 8
  %3 = alloca ptr, align 8
  %4 = alloca ptr, align 8
  %5 = alloca ptr, align 8
  store ptr %0, ptr %2, align 8, !tbaa !10
  call void @llvm.lifetime.start.p0(i64 8, ptr %3) #6
  %6 = load ptr, ptr %2, align 8, !tbaa !10
  %7 = getelementptr inbounds nuw %struct._generic_N_Vector, ptr %6, i32 0, i32 2
  %8 = load ptr, ptr %7, align 8, !tbaa !68
  store ptr %8, ptr %3, align 8, !tbaa !7
  call void @llvm.lifetime.start.p0(i64 8, ptr %4) #6
  call void @llvm.lifetime.start.p0(i64 8, ptr %5) #6
  store ptr null, ptr %4, align 8, !tbaa !10
  %9 = load ptr, ptr %2, align 8, !tbaa !10
  %10 = getelementptr inbounds nuw %struct._generic_N_Vector, ptr %9, i32 0, i32 2
  %11 = load ptr, ptr %10, align 8, !tbaa !68
  %12 = call ptr @N_VNewEmpty(ptr noundef %11)
  store ptr %12, ptr %4, align 8, !tbaa !10
  %13 = load ptr, ptr %2, align 8, !tbaa !10
  %14 = load ptr, ptr %4, align 8, !tbaa !10
  %15 = call i32 @N_VCopyOps(ptr noundef %13, ptr noundef %14)
  store ptr null, ptr %5, align 8, !tbaa !59
  %16 = call noalias ptr @malloc(i64 noundef 24) #7
  store ptr %16, ptr %5, align 8, !tbaa !59
  %17 = load ptr, ptr %5, align 8, !tbaa !59
  %18 = load ptr, ptr %4, align 8, !tbaa !10
  %19 = getelementptr inbounds nuw %struct._generic_N_Vector, ptr %18, i32 0, i32 0
  store ptr %17, ptr %19, align 8, !tbaa !61
  %20 = load ptr, ptr %2, align 8, !tbaa !10
  %21 = getelementptr inbounds nuw %struct._generic_N_Vector, ptr %20, i32 0, i32 0
  %22 = load ptr, ptr %21, align 8, !tbaa !61
  %23 = getelementptr inbounds nuw %struct._N_VectorContent_Serial, ptr %22, i32 0, i32 0
  %24 = load i64, ptr %23, align 8, !tbaa !62
  %25 = load ptr, ptr %5, align 8, !tbaa !59
  %26 = getelementptr inbounds nuw %struct._N_VectorContent_Serial, ptr %25, i32 0, i32 0
  store i64 %24, ptr %26, align 8, !tbaa !62
  %27 = load ptr, ptr %5, align 8, !tbaa !59
  %28 = getelementptr inbounds nuw %struct._N_VectorContent_Serial, ptr %27, i32 0, i32 1
  store i32 0, ptr %28, align 8, !tbaa !66
  %29 = load ptr, ptr %5, align 8, !tbaa !59
  %30 = getelementptr inbounds nuw %struct._N_VectorContent_Serial, ptr %29, i32 0, i32 2
  store ptr null, ptr %30, align 8, !tbaa !67
  %31 = load ptr, ptr %4, align 8, !tbaa !10
  call void @llvm.lifetime.end.p0(i64 8, ptr %5) #6
  call void @llvm.lifetime.end.p0(i64 8, ptr %4) #6
  call void @llvm.lifetime.end.p0(i64 8, ptr %3) #6
  ret ptr %31
}

; Function Attrs: nounwind uwtable
define ptr @N_VClone_Serial(ptr noundef %0) #0 {
  %2 = alloca ptr, align 8
  %3 = alloca ptr, align 8
  %4 = alloca ptr, align 8
  %5 = alloca ptr, align 8
  %6 = alloca i64, align 8
  store ptr %0, ptr %2, align 8, !tbaa !10
  call void @llvm.lifetime.start.p0(i64 8, ptr %3) #6
  %7 = load ptr, ptr %2, align 8, !tbaa !10
  %8 = getelementptr inbounds nuw %struct._generic_N_Vector, ptr %7, i32 0, i32 2
  %9 = load ptr, ptr %8, align 8, !tbaa !68
  store ptr %9, ptr %3, align 8, !tbaa !7
  call void @llvm.lifetime.start.p0(i64 8, ptr %4) #6
  call void @llvm.lifetime.start.p0(i64 8, ptr %5) #6
  call void @llvm.lifetime.start.p0(i64 8, ptr %6) #6
  store ptr null, ptr %4, align 8, !tbaa !10
  %10 = load ptr, ptr %2, align 8, !tbaa !10
  %11 = call ptr @N_VCloneEmpty_Serial(ptr noundef %10)
  store ptr %11, ptr %4, align 8, !tbaa !10
  %12 = load ptr, ptr %2, align 8, !tbaa !10
  %13 = getelementptr inbounds nuw %struct._generic_N_Vector, ptr %12, i32 0, i32 0
  %14 = load ptr, ptr %13, align 8, !tbaa !61
  %15 = getelementptr inbounds nuw %struct._N_VectorContent_Serial, ptr %14, i32 0, i32 0
  %16 = load i64, ptr %15, align 8, !tbaa !62
  store i64 %16, ptr %6, align 8, !tbaa !3
  store ptr null, ptr %5, align 8, !tbaa !69
  %17 = load i64, ptr %6, align 8, !tbaa !3
  %18 = icmp sgt i64 %17, 0
  br i1 %18, label %19, label %32

19:                                               ; preds = %1
  %20 = load i64, ptr %6, align 8, !tbaa !3
  %21 = mul i64 %20, 8
  %22 = call noalias ptr @malloc(i64 noundef %21) #7
  store ptr %22, ptr %5, align 8, !tbaa !69
  %23 = load ptr, ptr %4, align 8, !tbaa !10
  %24 = getelementptr inbounds nuw %struct._generic_N_Vector, ptr %23, i32 0, i32 0
  %25 = load ptr, ptr %24, align 8, !tbaa !61
  %26 = getelementptr inbounds nuw %struct._N_VectorContent_Serial, ptr %25, i32 0, i32 1
  store i32 1, ptr %26, align 8, !tbaa !66
  %27 = load ptr, ptr %5, align 8, !tbaa !69
  %28 = load ptr, ptr %4, align 8, !tbaa !10
  %29 = getelementptr inbounds nuw %struct._generic_N_Vector, ptr %28, i32 0, i32 0
  %30 = load ptr, ptr %29, align 8, !tbaa !61
  %31 = getelementptr inbounds nuw %struct._N_VectorContent_Serial, ptr %30, i32 0, i32 2
  store ptr %27, ptr %31, align 8, !tbaa !67
  br label %32

32:                                               ; preds = %19, %1
  %33 = load ptr, ptr %4, align 8, !tbaa !10
  call void @llvm.lifetime.end.p0(i64 8, ptr %6) #6
  call void @llvm.lifetime.end.p0(i64 8, ptr %5) #6
  call void @llvm.lifetime.end.p0(i64 8, ptr %4) #6
  call void @llvm.lifetime.end.p0(i64 8, ptr %3) #6
  ret ptr %33
}