; Function Attrs: nounwind uwtable
define noundef ptr @N_VClone_Serial(ptr noundef %0) #0 {
  %2 = getelementptr inbounds nuw i8, ptr %0, i64 16
  %3 = load ptr, ptr %2, align 8, !tbaa !62
  %4 = tail call ptr @N_VNewEmpty(ptr noundef %3) #20
  %5 = tail call i32 @N_VCopyOps(ptr noundef %0, ptr noundef %4) #20
  %6 = tail call noalias dereferenceable_or_null(24) ptr @malloc(i64 noundef 24) #21
  store ptr %6, ptr %4, align 8, !tbaa !54
  %7 = load ptr, ptr %0, align 8, !tbaa !54
  %8 = load i64, ptr %7, align 8, !tbaa !55
  store i64 %8, ptr %6, align 8, !tbaa !55
  %9 = getelementptr inbounds nuw i8, ptr %6, i64 8
  store i32 0, ptr %9, align 8, !tbaa !60
  %10 = getelementptr inbounds nuw i8, ptr %6, i64 16
  store ptr null, ptr %10, align 8, !tbaa !61
  %11 = icmp sgt i64 %8, 0
  br i1 %11, label %12, label %15

12:                                               ; preds = %1
  %13 = shl i64 %8, 3
  %14 = tail call noalias ptr @malloc(i64 noundef %13) #21
  store i32 1, ptr %9, align 8, !tbaa !60
  store ptr %14, ptr %10, align 8, !tbaa !61
  br label %15

15:                                               ; preds = %12, %1
  ret ptr %4
}